target datalayout = "e-m:e-p270:32:32-p271:32:32-p272:64:64-i64:64-i128:128-f80:128-n8:16:32:64-S128"
target triple = "x86_64-pc-linux-gnu"

; Function Attrs: nounwind uwtable
define internal i32 @H5P__dxfr_edc_enc(ptr noundef %0, ptr noundef %1, ptr noundef %2) #0 {
  %4 = alloca ptr, align 8
  %5 = alloca ptr, align 8
  %6 = alloca ptr, align 8
  %7 = alloca ptr, align 8
  %8 = alloca ptr, align 8
  store ptr %0, ptr %4, align 8
  store ptr %1, ptr %5, align 8
  store ptr %2, ptr %6, align 8
  %9 = load ptr, ptr %4, align 8
  store ptr %9, ptr %7, align 8
  %10 = load ptr, ptr %5, align 8
  store ptr %10, ptr %8, align 8
  %11 = load ptr, ptr %8, align 8
  %12 = load ptr, ptr %11, align 8
  %13 = icmp ne ptr null, %12
  br i1 %13, label %14, label %21

14:                                               ; preds = %3
  %15 = load ptr, ptr %7, align 8
  %16 = load i32, ptr %15, align 4
  %17 = trunc i32 %16 to i8
  %18 = load ptr, ptr %8, align 8
  %19 = load ptr, ptr %18, align 8
  %20 = getelementptr inbounds i8, ptr %19, i32 1
  store ptr %20, ptr %18, align 8
  store i8 %17, ptr %19, align 1
  br label %21

21:                                               ; preds = %14, %3
  %22 = load ptr, ptr %6, align 8
  %23 = load i64, ptr %22, align 8
  %24 = add i64 %23, 1
  store i64 %24, ptr %22, align 8
  ret i32 0
}